; ModuleID = '32/356.c'
source_filename = "32/356.c"
target datalayout = "e-m:e-p270:32:32-p271:32:32-p272:64:64-i64:64-f80:128-n8:16:32:64-S128"
target triple = "x86_64-pc-linux-gnu"

@.str = private unnamed_addr constant [4 x i8] c"%d\0A\00", align 1
@.str.1 = private unnamed_addr constant [2 x i8] c"\0A\00", align 1
@.str.2 = private unnamed_addr constant [4 x i8] c"%s\0A\00", align 1

; Function Attrs: noinline nounwind uwtable
define dso_local i32 @main() #0 {
  %1 = alloca i32, align 4
  %2 = alloca [20 x [100 x i8]], align 16
  %3 = alloca [20 x [100 x i8]], align 16
  %4 = alloca [20 x [100 x i8]], align 16
  %5 = alloca i32, align 4
  %6 = alloca i32, align 4
  %7 = alloca i32, align 4
  %8 = alloca i32, align 4
  %9 = alloca i32, align 4
  %10 = alloca i32, align 4
  %11 = alloca i32, align 4
  store i32 0, i32* %1, align 4
  %12 = call i32 (i8*, ...) @__isoc99_scanf(i8* getelementptr inbounds ([4 x i8], [4 x i8]* @.str, i64 0, i64 0), i32* %9)
  store i32 0, i32* %10, align 4
  br label %13

13:                                               ; preds = %149, %0
  %14 = load i32, i32* %10, align 4
  %15 = load i32, i32* %9, align 4
  %16 = icmp slt i32 %14, %15
  br i1 %16, label %17, label %152

17:                                               ; preds = %13
  %18 = load i32, i32* %10, align 4
  %19 = sext i32 %18 to i64
  %20 = getelementptr inbounds [20 x [100 x i8]], [20 x [100 x i8]]* %2, i64 0, i64 %19
  %21 = getelementptr inbounds [100 x i8], [100 x i8]* %20, i64 0, i64 0
  %22 = call i32 (i8*, ...) bitcast (i32 (...)* @gets to i32 (i8*, ...)*)(i8* %21)
  %23 = load i32, i32* %10, align 4
  %24 = sext i32 %23 to i64
  %25 = getelementptr inbounds [20 x [100 x i8]], [20 x [100 x i8]]* %3, i64 0, i64 %24
  %26 = getelementptr inbounds [100 x i8], [100 x i8]* %25, i64 0, i64 0
  %27 = call i32 (i8*, ...) bitcast (i32 (...)* @gets to i32 (i8*, ...)*)(i8* %26)
  %28 = call i32 (i8*, ...) @__isoc99_scanf(i8* getelementptr inbounds ([2 x i8], [2 x i8]* @.str.1, i64 0, i64 0))
  %29 = load i32, i32* %10, align 4
  %30 = sext i32 %29 to i64
  %31 = getelementptr inbounds [20 x [100 x i8]], [20 x [100 x i8]]* %2, i64 0, i64 %30
  %32 = getelementptr inbounds [100 x i8], [100 x i8]* %31, i64 0, i64 0
  %33 = call i64 @strlen(i8* %32) #3
  %34 = trunc i64 %33 to i32
  store i32 %34, i32* %6, align 4
  %35 = load i32, i32* %10, align 4
  %36 = sext i32 %35 to i64
  %37 = getelementptr inbounds [20 x [100 x i8]], [20 x [100 x i8]]* %3, i64 0, i64 %36
  %38 = getelementptr inbounds [100 x i8], [100 x i8]* %37, i64 0, i64 0
  %39 = call i64 @strlen(i8* %38) #3
  %40 = trunc i64 %39 to i32
  store i32 %40, i32* %7, align 4
  %41 = load i32, i32* %6, align 4
  %42 = load i32, i32* %7, align 4
  %43 = sub nsw i32 %41, %42
  store i32 %43, i32* %8, align 4
  %44 = load i32, i32* %6, align 4
  %45 = sub nsw i32 %44, 1
  store i32 %45, i32* %5, align 4
  br label %46

46:                                               ; preds = %145, %17
  %47 = load i32, i32* %5, align 4
  %48 = icmp sge i32 %47, 0
  br i1 %48, label %49, label %148

49:                                               ; preds = %46
  %50 = load i32, i32* %5, align 4
  %51 = load i32, i32* %8, align 4
  %52 = icmp sge i32 %50, %51
  br i1 %52, label %53, label %130

53:                                               ; preds = %49
  %54 = load i32, i32* %10, align 4
  %55 = sext i32 %54 to i64
  %56 = getelementptr inbounds [20 x [100 x i8]], [20 x [100 x i8]]* %2, i64 0, i64 %55
  %57 = load i32, i32* %5, align 4
  %58 = sext i32 %57 to i64
  %59 = getelementptr inbounds [100 x i8], [100 x i8]* %56, i64 0, i64 %58
  %60 = load i8, i8* %59, align 1
  %61 = sext i8 %60 to i32
  %62 = load i32, i32* %10, align 4
  %63 = sext i32 %62 to i64
  %64 = getelementptr inbounds [20 x [100 x i8]], [20 x [100 x i8]]* %3, i64 0, i64 %63
  %65 = load i32, i32* %5, align 4
  %66 = load i32, i32* %8, align 4
  %67 = sub nsw i32 %65, %66
  %68 = sext i32 %67 to i64
  %69 = getelementptr inbounds [100 x i8], [100 x i8]* %64, i64 0, i64 %68
  %70 = load i8, i8* %69, align 1
  %71 = sext i8 %70 to i32
  %72 = sub nsw i32 %61, %71
  %73 = add nsw i32 %72, 48
  %74 = trunc i32 %73 to i8
  %75 = load i32, i32* %10, align 4
  %76 = sext i32 %75 to i64
  %77 = getelementptr inbounds [20 x [100 x i8]], [20 x [100 x i8]]* %4, i64 0, i64 %76
  %78 = load i32, i32* %5, align 4
  %79 = sext i32 %78 to i64
  %80 = getelementptr inbounds [100 x i8], [100 x i8]* %77, i64 0, i64 %79
  store i8 %74, i8* %80, align 1
  %81 = load i32, i32* %10, align 4
  %82 = sext i32 %81 to i64
  %83 = getelementptr inbounds [20 x [100 x i8]], [20 x [100 x i8]]* %2, i64 0, i64 %82
  %84 = load i32, i32* %5, align 4
  %85 = sext i32 %84 to i64
  %86 = getelementptr inbounds [100 x i8], [100 x i8]* %83, i64 0, i64 %85
  %87 = load i8, i8* %86, align 1
  %88 = sext i8 %87 to i32
  %89 = load i32, i32* %10, align 4
  %90 = sext i32 %89 to i64
  %91 = getelementptr inbounds [20 x [100 x i8]], [20 x [100 x i8]]* %3, i64 0, i64 %90
  %92 = load i32, i32* %5, align 4
  %93 = load i32, i32* %8, align 4
  %94 = sub nsw i32 %92, %93
  %95 = sext i32 %94 to i64
  %96 = getelementptr inbounds [100 x i8], [100 x i8]* %91, i64 0, i64 %95
  %97 = load i8, i8* %96, align 1
  %98 = sext i8 %97 to i32
  %99 = icmp slt i32 %88, %98
  br i1 %99, label %100, label %129

100:                                              ; preds = %53
  %101 = load i32, i32* %10, align 4
  %102 = sext i32 %101 to i64
  %103 = getelementptr inbounds [20 x [100 x i8]], [20 x [100 x i8]]* %2, i64 0, i64 %102
  %104 = load i32, i32* %5, align 4
  %105 = sub nsw i32 %104, 1
  %106 = sext i32 %105 to i64
  %107 = getelementptr inbounds [100 x i8], [100 x i8]* %103, i64 0, i64 %106
  %108 = load i8, i8* %107, align 1
  %109 = sext i8 %108 to i32
  %110 = sub nsw i32 %109, 1
  %111 = trunc i32 %110 to i8
  %112 = load i32, i32* %10, align 4
  %113 = sext i32 %112 to i64
  %114 = getelementptr inbounds [20 x [100 x i8]], [20 x [100 x i8]]* %2, i64 0, i64 %113
  %115 = load i32, i32* %5, align 4
  %116 = sub nsw i32 %115, 1
  %117 = sext i32 %116 to i64
  %118 = getelementptr inbounds [100 x i8], [100 x i8]* %114, i64 0, i64 %117
  store i8 %111, i8* %118, align 1
  %119 = load i32, i32* %10, align 4
  %120 = sext i32 %119 to i64
  %121 = getelementptr inbounds [20 x [100 x i8]], [20 x [100 x i8]]* %4, i64 0, i64 %120
  %122 = load i32, i32* %5, align 4
  %123 = sext i32 %122 to i64
  %124 = getelementptr inbounds [100 x i8], [100 x i8]* %121, i64 0, i64 %123
  %125 = load i8, i8* %124, align 1
  %126 = sext i8 %125 to i32
  %127 = add nsw i32 %126, 10
  %128 = trunc i32 %127 to i8
  store i8 %128, i8* %124, align 1
  br label %129

129:                                              ; preds = %100, %53
  br label %144

130:                                              ; preds = %49
  %131 = load i32, i32* %10, align 4
  %132 = sext i32 %131 to i64
  %133 = getelementptr inbounds [20 x [100 x i8]], [20 x [100 x i8]]* %2, i64 0, i64 %132
  %134 = load i32, i32* %5, align 4
  %135 = sext i32 %134 to i64
  %136 = getelementptr inbounds [100 x i8], [100 x i8]* %133, i64 0, i64 %135
  %137 = load i8, i8* %136, align 1
  %138 = load i32, i32* %10, align 4
  %139 = sext i32 %138 to i64
  %140 = getelementptr inbounds [20 x [100 x i8]], [20 x [100 x i8]]* %4, i64 0, i64 %139
  %141 = load i32, i32* %5, align 4
  %142 = sext i32 %141 to i64
  %143 = getelementptr inbounds [100 x i8], [100 x i8]* %140, i64 0, i64 %142
  store i8 %137, i8* %143, align 1
  br label %144

144:                                              ; preds = %130, %129
  br label %145

145:                                              ; preds = %144
  %146 = load i32, i32* %5, align 4
  %147 = add nsw i32 %146, -1
  store i32 %147, i32* %5, align 4
  br label %46

148:                                              ; preds = %46
  store i32 0, i32* %7, align 4
  store i32 0, i32* %8, align 4
  store i32 0, i32* %5, align 4
  store i32 0, i32* %6, align 4
  br label %149

149:                                              ; preds = %148
  %150 = load i32, i32* %10, align 4
  %151 = add nsw i32 %150, 1
  store i32 %151, i32* %10, align 4
  br label %13

152:                                              ; preds = %13
  store i32 0, i32* %11, align 4
  br label %153

153:                                              ; preds = %163, %152
  %154 = load i32, i32* %11, align 4
  %155 = load i32, i32* %9, align 4
  %156 = icmp slt i32 %154, %155
  br i1 %156, label %157, label %166

157:                                              ; preds = %153
  %158 = load i32, i32* %11, align 4
  %159 = sext i32 %158 to i64
  %160 = getelementptr inbounds [20 x [100 x i8]], [20 x [100 x i8]]* %4, i64 0, i64 %159
  %161 = getelementptr inbounds [100 x i8], [100 x i8]* %160, i64 0, i64 0
  %162 = call i32 (i8*, ...) @printf(i8* getelementptr inbounds ([4 x i8], [4 x i8]* @.str.2, i64 0, i64 0), i8* %161)
  br label %163

163:                                              ; preds = %157
  %164 = load i32, i32* %11, align 4
  %165 = add nsw i32 %164, 1
  store i32 %165, i32* %11, align 4
  br label %153

166:                                              ; preds = %153
  %167 = load i32, i32* %1, align 4
  ret i32 %167
}

declare dso_local i32 @__isoc99_scanf(i8*, ...) #1

declare dso_local i32 @gets(...) #1

; Function Attrs: nounwind readonly
declare dso_local i64 @strlen(i8*) #2

declare dso_local i32 @printf(i8*, ...) #1


!llvm.module.flags = !{!0}
!llvm.ident = !{!1}

!0 = !{i32 1, !"wchar_size", i32 4}
!1 = !{!"clang version 10.0.0-4ubuntu1 "}
