; ModuleID = 'source-C-CXX/31/356.c'
source_filename = "source-C-CXX/31/356.c"
target datalayout = "e-m:e-p270:32:32-p271:32:32-p272:64:64-i64:64-f80:128-n8:16:32:64-S128"
target triple = "x86_64-pc-linux-gnu"

@.str = private unnamed_addr constant [4 x i8] c"%d\0A\00", align 1
@.str.1 = private unnamed_addr constant [2 x i8] c"\0A\00", align 1

; Function Attrs: nounwind sspstrong uwtable
define dso_local i32 @main() local_unnamed_addr #0 {
  %1 = alloca [20 x [100 x i8]], align 16
  %2 = alloca [20 x [100 x i8]], align 16
  %3 = alloca [20 x [100 x i8]], align 16
  %4 = alloca i32, align 4
  %5 = getelementptr inbounds [20 x [100 x i8]], [20 x [100 x i8]]* %1, i64 0, i64 0, i64 0
  call void @llvm.lifetime.start.p0i8(i64 2000, i8* nonnull %5) #6
  %6 = getelementptr inbounds [20 x [100 x i8]], [20 x [100 x i8]]* %2, i64 0, i64 0, i64 0
  call void @llvm.lifetime.start.p0i8(i64 2000, i8* nonnull %6) #6
  %7 = getelementptr inbounds [20 x [100 x i8]], [20 x [100 x i8]]* %3, i64 0, i64 0, i64 0
  call void @llvm.lifetime.start.p0i8(i64 2000, i8* nonnull %7) #6
  %8 = bitcast i32* %4 to i8*
  call void @llvm.lifetime.start.p0i8(i64 4, i8* nonnull %8) #6
  %9 = call i32 (i8*, ...) @__isoc99_scanf(i8* getelementptr inbounds ([4 x i8], [4 x i8]* @.str, i64 0, i64 0), i32* nonnull %4)
  %10 = load i32, i32* %4, align 4, !tbaa !5
  %11 = icmp sgt i32 %10, 0
  br i1 %11, label %14, label %71

12:                                               ; preds = %58
  %13 = icmp sgt i32 %60, 0
  br i1 %13, label %63, label %71

14:                                               ; preds = %0, %58
  %15 = phi i64 [ %59, %58 ], [ 0, %0 ]
  %16 = getelementptr inbounds [20 x [100 x i8]], [20 x [100 x i8]]* %1, i64 0, i64 %15, i64 0
  %17 = call i32 (i8*, ...) bitcast (i32 (...)* @gets to i32 (i8*, ...)*)(i8* nonnull %16) #6
  %18 = getelementptr inbounds [20 x [100 x i8]], [20 x [100 x i8]]* %2, i64 0, i64 %15, i64 0
  %19 = call i32 (i8*, ...) bitcast (i32 (...)* @gets to i32 (i8*, ...)*)(i8* nonnull %18) #6
  %20 = call i32 (i8*, ...) @__isoc99_scanf(i8* getelementptr inbounds ([2 x i8], [2 x i8]* @.str.1, i64 0, i64 0))
  %21 = call i64 @strlen(i8* noundef nonnull %16) #7
  %22 = trunc i64 %21 to i32
  %23 = call i64 @strlen(i8* noundef nonnull %18) #7
  %24 = trunc i64 %23 to i32
  %25 = sub nsw i32 %22, %24
  %26 = icmp sgt i32 %22, 0
  br i1 %26, label %27, label %58

27:                                               ; preds = %14
  %28 = shl i64 %21, 32
  %29 = ashr exact i64 %28, 32
  %30 = sext i32 %25 to i64
  br label %31

31:                                               ; preds = %27, %56
  %32 = phi i64 [ %29, %27 ], [ %34, %56 ]
  %33 = phi i32 [ %22, %27 ], [ %35, %56 ]
  %34 = add nsw i64 %32, -1
  %35 = add nsw i32 %33, -1
  %36 = icmp sgt i64 %32, %30
  %37 = getelementptr inbounds [20 x [100 x i8]], [20 x [100 x i8]]* %1, i64 0, i64 %15, i64 %34
  %38 = load i8, i8* %37, align 1, !tbaa !9
  br i1 %36, label %39, label %54

39:                                               ; preds = %31
  %40 = sub nsw i32 %35, %25
  %41 = sext i32 %40 to i64
  %42 = getelementptr inbounds [20 x [100 x i8]], [20 x [100 x i8]]* %2, i64 0, i64 %15, i64 %41
  %43 = load i8, i8* %42, align 1, !tbaa !9
  %44 = sub i8 %38, %43
  %45 = add i8 %44, 48
  %46 = getelementptr inbounds [20 x [100 x i8]], [20 x [100 x i8]]* %3, i64 0, i64 %15, i64 %34
  store i8 %45, i8* %46, align 1, !tbaa !9
  %47 = icmp slt i8 %38, %43
  br i1 %47, label %48, label %56

48:                                               ; preds = %39
  %49 = add nsw i64 %32, -2
  %50 = getelementptr inbounds [20 x [100 x i8]], [20 x [100 x i8]]* %1, i64 0, i64 %15, i64 %49
  %51 = load i8, i8* %50, align 1, !tbaa !9
  %52 = add i8 %51, -1
  store i8 %52, i8* %50, align 1, !tbaa !9
  %53 = add i8 %44, 58
  store i8 %53, i8* %46, align 1, !tbaa !9
  br label %56

54:                                               ; preds = %31
  %55 = getelementptr inbounds [20 x [100 x i8]], [20 x [100 x i8]]* %3, i64 0, i64 %15, i64 %34
  store i8 %38, i8* %55, align 1, !tbaa !9
  br label %56

56:                                               ; preds = %54, %48, %39
  %57 = icmp sgt i64 %32, 1
  br i1 %57, label %31, label %58, !llvm.loop !10

58:                                               ; preds = %56, %14
  %59 = add nuw nsw i64 %15, 1
  %60 = load i32, i32* %4, align 4, !tbaa !5
  %61 = sext i32 %60 to i64
  %62 = icmp slt i64 %59, %61
  br i1 %62, label %14, label %12, !llvm.loop !12

63:                                               ; preds = %12, %63
  %64 = phi i64 [ %67, %63 ], [ 0, %12 ]
  %65 = getelementptr inbounds [20 x [100 x i8]], [20 x [100 x i8]]* %3, i64 0, i64 %64, i64 0
  %66 = call i32 @puts(i8* nonnull %65)
  %67 = add nuw nsw i64 %64, 1
  %68 = load i32, i32* %4, align 4, !tbaa !5
  %69 = sext i32 %68 to i64
  %70 = icmp slt i64 %67, %69
  br i1 %70, label %63, label %71, !llvm.loop !13

71:                                               ; preds = %63, %0, %12
  call void @llvm.lifetime.end.p0i8(i64 4, i8* nonnull %8) #6
  call void @llvm.lifetime.end.p0i8(i64 2000, i8* nonnull %7) #6
  call void @llvm.lifetime.end.p0i8(i64 2000, i8* nonnull %6) #6
  call void @llvm.lifetime.end.p0i8(i64 2000, i8* nonnull %5) #6
  ret i32 0
}

; Function Attrs: argmemonly mustprogress nofree nosync nounwind willreturn
declare void @llvm.lifetime.start.p0i8(i64 immarg, i8* nocapture) #1

; Function Attrs: nofree nounwind
declare noundef i32 @__isoc99_scanf(i8* nocapture noundef readonly, ...) local_unnamed_addr #2

declare i32 @gets(...) local_unnamed_addr #3

; Function Attrs: argmemonly mustprogress nofree nounwind readonly willreturn
declare i64 @strlen(i8* nocapture) local_unnamed_addr #4

; Function Attrs: argmemonly mustprogress nofree nosync nounwind willreturn
declare void @llvm.lifetime.end.p0i8(i64 immarg, i8* nocapture) #1

; Function Attrs: nofree nounwind
declare noundef i32 @puts(i8* nocapture noundef readonly) local_unnamed_addr #5


!llvm.module.flags = !{!0, !1, !2, !3}
!llvm.ident = !{!4}

!0 = !{i32 1, !"wchar_size", i32 4}
!1 = !{i32 7, !"PIC Level", i32 2}
!2 = !{i32 7, !"PIE Level", i32 2}
!3 = !{i32 7, !"uwtable", i32 1}
!4 = !{!"clang version 13.0.0"}
!5 = !{!6, !6, i64 0}
!6 = !{!"int", !7, i64 0}
!7 = !{!"omnipotent char", !8, i64 0}
!8 = !{!"Simple C/C++ TBAA"}
!9 = !{!7, !7, i64 0}
!10 = distinct !{!10, !11}
!11 = !{!"llvm.loop.mustprogress"}
!12 = distinct !{!12, !11}
!13 = distinct !{!13, !11}
